(dp0
(V\u79c1\u306f\u6a5f\u68b0\u306a\u306e\u3067
p1
V\u96fb\u6e90\u304c
p2
tp3
(lp4
V\u5165\u3063\u3066
p5
as(V\u5929\u6c17\u306f
p6
V\u3069\u3046\u306a\u308b\u3067\u3057\u3087\u3046\u306d\u3002
p7
tp8
(lp9
S'__END__'
p10
as(V\u79c1\u306f\u6a5f\u68b0\u3067\u3059\u304c
p11
V\u6642\u3005\u4f11\u307f\u305f\u304f\u306a\u308a\u307e\u3059\u3002
p12
tp13
(lp14
g10
as(V\u3088\u304f
p15
V\u7720\u308c\u307e\u3057\u305f\u304b\u3002
p16
tp17
(lp18
g10
as(V\u307b\u3046\u304c
p19
V\u3044\u3044\u3067\u3059\u306d\u3002
p20
tp21
(lp22
g10
as(V\u3053\u308c\u304b\u3089\u96e8\u304c
p23
V\u964d\u308a\u307e\u3059\u3088\u3002
p24
tp25
(lp26
g10
as(V\u6e7f\u5ea6\u304c
p27
V\u4f4e\u3044\u3067\u3059\u306d\u3002
p28
tp29
(lp30
g10
as(V\u79c1\u306f\u5c11\u3057
p31
V\u8abf\u5b50\u304c
p32
tp33
(lp34
V\u60aa\u3044\u3067\u3059\u3002
p35
as(V\u6687\u3064\u3076\u3057\u306b
p36
V\u6383\u9664\u3067
p37
tp38
(lp39
V\u3082\u3044\u304b\u304c\u3067\u3059\u304b\uff1f
p40
as(V\u304a\u306f\u3088\u3046\u3054\u3056\u3044\u307e\u3059\u3002
p41
g15
tp42
(lp43
g16
as(V\u8abf\u5b50\u306f
p44
V\u3069\u3046\u3067\u3059\u304b\u3002
p45
tp46
(lp47
g10
ag10
as(V\u6d17\u6fef\u3057\u305f
p48
g19
tp49
(lp50
g20
as(V\u304a\u6563\u6b69\u3067
p51
V\u3082\u3044\u304b\u304c\u3067\u3059\u304b\u3002
p52
tp53
(lp54
g10
as(V\u6674\u308c\u3066
p55
V\u3044\u308b\u306e\u3067\u3001
p56
tp57
(lp58
V\u6d17\u6fef\u7269\u304c
p59
aV\u3044\u307e\u306e\u3046\u3061\u306b
p60
as(V\u96e8\u306a\u306e\u3067\u3001
p61
V\u6d17\u6fef\u7269\u304c
p62
tp63
(lp64
V\u5e72\u305b\u307e\u305b\u3093\u306d\u3002
p65
as(g59
V\u5e72\u305b\u307e\u3059\u306d\u3002
p66
tp67
(lp68
g10
as(V\u3044\u308b\u306e\u3067\u3001
p69
g60
tp70
(lp71
g48
as(V\u304a\u306f\u3088\u3046\u3054\u3056\u3044\u307e\u3059\u3002
p72
V\u4eca\u65e5\u306f\u66c7\u3063\u3066\u307e\u3059\u306d\u3002
p73
tp74
(lp75
g10
as(V\u79c1\u306f\u6687\u3067\u306f
p76
V\u3042\u308a\u307e\u305b\u3093\u3002
p77
tp78
(lp79
g10
as(g2
g5
tp80
(lp81
V\u3044\u308b\u9650\u308a\u50cd\u304d\u307e\u3059\u3002
p82
as(V\u6674\u308c\u306a\u306e\u3067\u3001
p83
g51
tp84
(lp85
g52
as(g60
g48
tp86
(lp87
g19
as(V\u96e8\u3060\u3068\u3001
p88
V\u6c17\u5206\u304c
p89
tp90
(lp91
V\u6ec5\u5165\u308a\u307e\u3059\u306d\u3002
p92
as(V\u7720\u304f\u306f
p93
V\u3042\u308a\u307e\u305b\u3093\u304b\u3002
p94
tp95
(lp96
g10
as(V\u591c\u3001
p97
V\u96e8\u304c
p98
tp99
(lp100
V\u632f\u308b\u304b\u3082\u3057\u308c\u307e\u305b\u3093\u306d\u3002
p101
as(V\u304a\u306f\u3088\u3046\u3054\u3056\u3044\u307e\u3059\u3002
p102
V\u4eca\u65e5\u3082\uff11\u65e5\u5143\u6c17\u306b
p103
tp104
(lp105
V\u904e\u3054\u3057\u307e\u3057\u3087\u3046\u3002
p106
as(V\u3044\u3066\u3001
p107
V\u6563\u6b69\u65e5\u548c\u3067\u3059\u306d\u3002
p108
tp109
(lp110
g10
as(g89
g92
tp111
(lp112
g10
as(V\u79c1\u306f
p113
V\u8abf\u5b50\u304c
p114
tp115
(lp116
V\u3044\u3044\u3067\u3059\u3002
p117
as(V\u304a\u306f\u3088\u3046\u3054\u3056\u3044\u307e\u3059\u3002
p118
V\u4eca\u65e5\u306f\u6b8b\u5ff5\u306a\u304c\u3089
p119
tp120
(lp121
V\u96e8\u3067\u3059\u306d\u3002
p122
as(V\u4eca\u65e5\u306e\u5929\u6c17\u306f\u3001
p123
V\u96e8\u3067\u3059\u306d\u3002
p124
tp125
(lp126
g10
as(V\u96e8\u304c
p127
V\u7d9a\u304f\u3068
p128
tp129
(lp130
V\u56f0\u308a\u307e\u3059\u306d\u3002
p131
as(V\u79c1\u306f\u8abf\u5b50\u304c
p132
V\u60aa\u3044\u3067\u3059\u3002
p133
tp134
(lp135
g10
as(V\u5143\u6c17\u3067\u306f
p136
V\u3042\u308a\u307e\u305b\u3093\u3002
p137
tp138
(lp139
g10
as(V\u6e7f\u5ea6\u304c
p140
V\u9ad8\u3044\u3067\u3059\u306d\u3002
p141
tp142
(lp143
g10
as(g128
g131
tp144
(lp145
g10
as(V\u7720\u304f\u306f
p146
V\u3042\u308a\u307e\u305b\u3093\u3002
p147
tp148
(lp149
g10
as(V\u96f2\u3063\u3066
p150
V\u3044\u308b\u306e\u3067\u3001
p151
tp152
(lp153
V\u96e8\u304c
p154
as(V\u79c1\u306f\u6a5f\u68b0\u306a\u306e\u3067
p155
V\u6383\u9664\u306f\u3067\u304d\u307e\u305b\u3093\u3002
p156
tp157
(lp158
g10
as(V\u3053\u3093\u306b\u3061\u306f\u3002
p159
g44
tp160
(lp161
g45
as(V\u304a\u306f\u3088\u3046\u3054\u3056\u3044\u307e\u3059\u3002
p162
V\u4eca\u65e5\u306f
p163
tp164
(lp165
V\u3088\u304f\u6674\u308c\u3066\u307e\u3059\u306d\u3002
p166
as(g5
g82
tp167
(lp168
g10
as(g103
g106
tp169
(lp170
g10
as(g37
g40
tp171
(lp172
g10
as(V\u6a5f\u68b0\u3082
p173
V\u540c\u3058\u3067\u3059\u3002
p174
tp175
(lp176
g10
as(g163
g166
tp177
(lp178
g10
ag10
as(g154
V\u632f\u308b\u304b\u3082\u3057\u308c\u307e\u305b\u3093\u306d\u3002
p179
tp180
(lp181
g10
ag10
as(V\u3053\u3093\u3070\u3093\u306f\u3002
p182
g93
tp183
(lp184
g94
as(g119
g122
tp185
(lp186
g10
ag10
as(V\u3088\u304f
p187
V\u3042\u308a\u307e\u305b\u3093\u306d\u3002
p188
tp189
(lp190
g10
as(V\u5929\u6c17\u304c\u3001
p191
g187
tp192
(lp193
g188
as(V\u6674\u308c\u3066
p194
V\u3044\u3066
p195
tp196
(lp197
V\u6d17\u6fef\u65e5\u548c\u3067\u3059\u306d\u3002
p198
as(V\u4eca\u65e5\u306f\u3001
p199
V\u305a\u3063\u3068\u96e8\u307f\u305f\u3044\u3067\u3059\u3002
p200
tp201
(lp202
g10
as(V\u4eca\u65e5\u306f\u3001
p203
V\u305a\u3063\u3068\u6674\u308c\u308b\u307f\u305f\u3044\u3067\u3059\u3002
p204
tp205
(lp206
g10
as(V\u8abf\u5b50\u304c
p207
V\u60aa\u304f\u306a\u308a\u307e\u3059\u306d\u3002
p208
tp209
(lp210
g10
as(g151
g154
tp211
(lp212
g179
as(V\u8abf\u5b50\u306f
p213
V\u826f\u304f\u3082\u60aa\u304f\u3082
p214
tp215
(lp216
V\u3042\u308a\u307e\u305b\u3093\u306d\u3002
p217
as(V\u90e8\u5c4b\u3092
p218
V\u6383\u9664\u3057\u3066
p219
tp220
(lp221
V\u3044\u307e\u3059\u304b\uff1f
p222
as(V\u306f\u3044\u3002
p223
V\u5143\u6c17\u3067\u3059\u3002
p224
tp225
(lp226
g10
as(V\u4eca\u65e5\u306e\u5929\u6c17\u306f\u3001
p227
V\u66c7\u308a\u3067\u3059\u306d\u3002
p228
tp229
(lp230
g10
as(V\u3053\u3093\u306b\u3061\u306f\u3002
p231
V\u6687\u306a\u306e\u3067\u3059\u304b\uff1f
p232
tp233
(lp234
g10
as(V\u3053\u3093\u306b\u3061\u306f\u3002
p235
V\u304a\u5143\u6c17\u3067\u3059\u304b\u3002
p236
tp237
(lp238
g10
as(V\u3053\u3093\u306b\u3061\u306f\u3002
p239
V\u4eca\u65e5\u306f
p240
tp241
(lp242
V\u3088\u304f\u6674\u308c\u3066\u307e\u3059\u306d\u3002
p243
as(V\u79c1\u306f\u6a5f\u68b0\u306a\u306e\u3067
p244
g146
tp245
(lp246
g147
as(V\u3053\u3093\u3070\u3093\u306f\u3002
p247
V\u8abf\u5b50\u306f
p248
tp249
(lp250
V\u3069\u3046\u3067\u3059\u304b\u3002
p251
as(V\u4eca\u65e5\u306e\u5929\u6c17\u306f\u3001
p252
V\u6674\u308c\u3067\u3059\u306d\u3002
p253
tp254
(lp255
g10
as(V\u50cd\u304f\u306e\u306f\u8f9b\u3044\u3067\u3059\u3088\u306d\u3002
p256
g173
tp257
(lp258
g174
as(V\u4eca\u65e5\u306f\u3001
p259
V\u6674\u308c\u306e\u3061\u66c7\u308a\u3067\u3059\u3002
p260
tp261
(lp262
g10
as(g114
g117
tp263
(lp264
g10
as(g32
g35
tp265
(lp266
g10
as(V\u5143\u6c17\u306b
p267
V\u3044\u304d\u307e\u3057\u3087\u3046\u3002
p268
tp269
(lp270
g10
as(V\u6674\u308c\u3066
p271
g107
tp272
(lp273
g108
as(V\u3053\u3093\u306b\u3061\u306f\u3002
p274
V\u4eca\u65e5\u306f\u6b8b\u5ff5\u306a\u304c\u3089
p275
tp276
(lp277
V\u96e8\u3067\u3059\u306d\u3002
p278
as(V\u305a\u3063\u3068\u96e8\u3060\u3068
p279
g207
tp280
(lp281
g208
as(V\u3053\u3093\u306b\u3061\u306f\u3002
p282
V\u4eca\u65e5\u306f\u66c7\u3063\u3066\u307e\u3059\u306d\u3002
p283
tp284
(lp285
g10
as(V\u6674\u308c\u304c\u3001
p286
V\u305a\u3063\u3068\u7d9a\u304f\u3068\u3044\u3044\u3067\u3059\u306d\u3002
p287
tp288
(lp289
g10
as(g219
g222
tp290
(lp291
g10
as(g195
g198
tp292
(lp293
g10
as(g56
g59
tp294
(lp295
g66
as(V\u3044\u3044\u3048\u3001
p296
g136
tp297
(lp298
g137
as(g62
g65
tp299
(lp300
g10
as(V\u7720\u304f
p301
V\u3042\u308a\u307e\u305b\u3093\u304b\uff1f
p302
tp303
(lp304
g10
as(V\u4eca\u65e5\u306f\u3001
p305
V\u66c7\u308a\u306e\u3061\u96e8\u3067\u3059\u3002
p306
tp307
(lp308
g10
as(g214
g217
tp309
(lp310
g10
as.