(dp0
(V\u5929\u6c17\u306f
p1
V\u3069\u3046\u306a\u308b\u3067\u3057\u3087\u3046\u306d\u3002
p2
tp3
I1
s(V\u79c1\u306f\u6a5f\u68b0\u306a\u306e\u3067
p4
V\u96fb\u6e90\u304c
p5
tp6
I1
s(V\u3044\u3044\u3048\u3001
p7
V\u5143\u6c17\u3067\u306f
p8
tp9
I1
s(V\u3053\u308c\u304b\u3089\u96e8\u304c
p10
V\u964d\u308a\u307e\u3059\u3088\u3002
p11
tp12
I1
s(V\u90e8\u5c4b\u3092
p13
V\u6383\u9664\u3057\u3066
p14
tp15
I1
s(V\u79c1\u306f\u5c11\u3057
p16
V\u8abf\u5b50\u304c
p17
tp18
I1
s(V\u6687\u3064\u3076\u3057\u306b
p19
V\u6383\u9664\u3067
p20
tp21
I1
s(V\u304a\u306f\u3088\u3046\u3054\u3056\u3044\u307e\u3059\u3002
p22
V\u3088\u304f
p23
tp24
I1
s(V\u79c1\u306f\u6a5f\u68b0\u3067\u3059\u304c
p25
V\u6642\u3005\u4f11\u307f\u305f\u304f\u306a\u308a\u307e\u3059\u3002
p26
tp27
I1
s(V\u6674\u308c\u3066
p28
V\u3044\u308b\u306e\u3067\u3001
p29
tp30
I2
s(V\u8abf\u5b50\u306f
p31
V\u826f\u304f\u3082\u60aa\u304f\u3082
p32
tp33
I1
s(V\u79c1\u306f\u6a5f\u68b0\u306a\u306e\u3067
p34
V\u7720\u304f\u306f
p35
tp36
I1
s(V\u304a\u306f\u3088\u3046\u3054\u3056\u3044\u307e\u3059\u3002
p37
V\u4eca\u65e5\u306f\u66c7\u3063\u3066\u307e\u3059\u306d\u3002
p38
tp39
I1
s(V\u79c1\u306f\u6687\u3067\u306f
p40
V\u3042\u308a\u307e\u305b\u3093\u3002
p41
tp42
I1
s(V\u6674\u308c\u306a\u306e\u3067\u3001
p43
V\u304a\u6563\u6b69\u3067
p44
tp45
I1
s(V\u96e8\u3060\u3068\u3001
p46
V\u6c17\u5206\u304c
p47
tp48
I1
s(V\u4eca\u65e5\u306f\u3001
p49
V\u66c7\u308a\u306e\u3061\u96e8\u3067\u3059\u3002
p50
tp51
I1
s(V\u79c1\u306f
p52
V\u8abf\u5b50\u304c
p53
tp54
I1
s(V\u304a\u306f\u3088\u3046\u3054\u3056\u3044\u307e\u3059\u3002
p55
V\u4eca\u65e5\u306f\u6b8b\u5ff5\u306a\u304c\u3089
p56
tp57
I1
s(V\u4eca\u65e5\u306e\u5929\u6c17\u306f\u3001
p58
V\u96e8\u3067\u3059\u306d\u3002
p59
tp60
I1
s(V\u96e8\u304c
p61
V\u7d9a\u304f\u3068
p62
tp63
I1
s(V\u79c1\u306f\u8abf\u5b50\u304c
p64
V\u60aa\u3044\u3067\u3059\u3002
p65
tp66
I1
s(V\u6e7f\u5ea6\u304c
p67
V\u9ad8\u3044\u3067\u3059\u306d\u3002
p68
tp69
I1
s(V\u96f2\u3063\u3066
p70
V\u3044\u308b\u306e\u3067\u3001
p71
tp72
I1
s(V\u3053\u3093\u306b\u3061\u306f\u3002
p73
V\u8abf\u5b50\u306f
p74
tp75
I1
s(V\u304a\u306f\u3088\u3046\u3054\u3056\u3044\u307e\u3059\u3002
p76
V\u4eca\u65e5\u306f
p77
tp78
I1
s(V\u79c1\u306f\u6a5f\u68b0\u306a\u306e\u3067
p79
V\u6383\u9664\u306f\u3067\u304d\u307e\u305b\u3093\u3002
p80
tp81
I1
s(V\u3053\u3093\u306b\u3061\u306f\u3002
p82
V\u6687\u306a\u306e\u3067\u3059\u304b\uff1f
p83
tp84
I1
s(V\u96e8\u306a\u306e\u3067\u3001
p85
V\u6d17\u6fef\u7269\u304c
p86
tp87
I1
s(V\u3053\u3093\u3070\u3093\u306f\u3002
p88
V\u7720\u304f\u306f
p89
tp90
I1
s(V\u6e7f\u5ea6\u304c
p91
V\u4f4e\u3044\u3067\u3059\u306d\u3002
p92
tp93
I1
s(V\u6674\u308c\u3066
p94
V\u3044\u3066
p95
tp96
I1
s(V\u5929\u6c17\u304c\u3001
p97
V\u3088\u304f
p98
tp99
I1
s(V\u4eca\u65e5\u306f\u3001
p100
V\u305a\u3063\u3068\u6674\u308c\u308b\u307f\u305f\u3044\u3067\u3059\u3002
p101
tp102
I1
s(V\u306f\u3044\u3002
p103
V\u5143\u6c17\u3067\u3059\u3002
p104
tp105
I1
s(V\u4eca\u65e5\u306e\u5929\u6c17\u306f\u3001
p106
V\u66c7\u308a\u3067\u3059\u306d\u3002
p107
tp108
I1
s(V\u3053\u3093\u306b\u3061\u306f\u3002
p109
V\u304a\u5143\u6c17\u3067\u3059\u304b\u3002
p110
tp111
I1
s(V\u3053\u3093\u306b\u3061\u306f\u3002
p112
V\u4eca\u65e5\u306f
p113
tp114
I1
s(V\u3053\u3093\u3070\u3093\u306f\u3002
p115
V\u8abf\u5b50\u306f
p116
tp117
I1
s(V\u4eca\u65e5\u306e\u5929\u6c17\u306f\u3001
p118
V\u6674\u308c\u3067\u3059\u306d\u3002
p119
tp120
I1
s(V\u50cd\u304f\u306e\u306f\u8f9b\u3044\u3067\u3059\u3088\u306d\u3002
p121
V\u6a5f\u68b0\u3082
p122
tp123
I1
s(V\u4eca\u65e5\u306f\u3001
p124
V\u6674\u308c\u306e\u3061\u66c7\u308a\u3067\u3059\u3002
p125
tp126
I1
s(V\u5143\u6c17\u306b
p127
V\u3044\u304d\u307e\u3057\u3087\u3046\u3002
p128
tp129
I1
s(V\u6674\u308c\u3066
p130
V\u3044\u3066\u3001
p131
tp132
I1
s(V\u4eca\u65e5\u306f\u3001
p133
V\u305a\u3063\u3068\u96e8\u307f\u305f\u3044\u3067\u3059\u3002
p134
tp135
I1
s(V\u3053\u3093\u306b\u3061\u306f\u3002
p136
V\u4eca\u65e5\u306f\u6b8b\u5ff5\u306a\u304c\u3089
p137
tp138
I1
s(V\u305a\u3063\u3068\u96e8\u3060\u3068
p139
V\u8abf\u5b50\u304c
p140
tp141
I1
s(V\u3053\u3093\u306b\u3061\u306f\u3002
p142
V\u4eca\u65e5\u306f\u66c7\u3063\u3066\u307e\u3059\u306d\u3002
p143
tp144
I1
s(V\u6674\u308c\u304c\u3001
p145
V\u305a\u3063\u3068\u7d9a\u304f\u3068\u3044\u3044\u3067\u3059\u306d\u3002
p146
tp147
I1
s(V\u304a\u306f\u3088\u3046\u3054\u3056\u3044\u307e\u3059\u3002
p148
V\u4eca\u65e5\u3082\uff11\u65e5\u5143\u6c17\u306b
p149
tp150
I1
s(V\u7720\u304f
p151
V\u3042\u308a\u307e\u305b\u3093\u304b\uff1f
p152
tp153
I1
s(V\u591c\u3001
p154
V\u96e8\u304c
p155
tp156
I1
s.